target datalayout = "e-m:e-p270:32:32-p271:32:32-p272:64:64-i64:64-i128:128-f80:128-n8:16:32:64-S128"
target triple = "x86_64-pc-linux-gnu"

%struct.ossl_param_st = type { ptr, i32, ptr, i64, i64 }

@.str.53 = private unnamed_addr constant [31 x i8] c"../openssl/test/evp_kdf_test.c\00", align 1
@.str.67 = private unnamed_addr constant [2 x i8] c"0\00", align 1
@.str.71 = private unnamed_addr constant [5 x i8] c"salt\00", align 1
@.str.76 = private unnamed_addr constant [4 x i8] c"mac\00", align 1
@.str.80 = private unnamed_addr constant [4 x i8] c"key\00", align 1
@.str.82 = private unnamed_addr constant [6 x i8] c"KBKDF\00", align 1
@.str.83 = private unnamed_addr constant [5 x i8] c"kctx\00", align 1
@.str.84 = private unnamed_addr constant [53 x i8] c"EVP_KDF_derive(kctx, result, sizeof(result), params)\00", align 1
@.str.85 = private unnamed_addr constant [7 x i8] c"result\00", align 1
@.str.93 = private unnamed_addr constant [5 x i8] c"info\00", align 1
@.str.97 = private unnamed_addr constant [7 x i8] c"output\00", align 1
@test_kdf_kbkdf_kmac.mac = internal global ptr @.str.102, align 8
@test_kdf_kbkdf_kmac.input_key = internal global [41 x i8] c"\DD\81\EF\C8,\DD\ECQ\C4\09\BD\8C\CB\AF\94\F6_\FA{\92\F1\11\F9@+\0Dj\E0^D\924\F0;\BA\F5O\EF\19E\DA", align 16
@test_kdf_kbkdf_kmac.label = internal global [54 x i8] c"\A5\DE*\0A\F0\DAY\04\CC\FFP\D3\A5\D2\DE\A33\C0'\ED\DCjTT\95xt\0D\E7\B7\92\D6d\D5\FB\1F\0F\87\FDey\8B\81\83\95@z\19\8D\CA\E0J\93\A8", align 16
@.str.103 = private unnamed_addr constant [31 x i8] c"EVP_KDF_CTX_get_kdf_size(kctx)\00", align 1
@.str.104 = private unnamed_addr constant [9 x i8] c"SIZE_MAX\00", align 1

; Function Attrs: nounwind uwtable
define internal ptr @get_kdfbyname_libctx(ptr noundef %0, ptr noundef %1) #0 {
  %3 = alloca ptr, align 8
  %4 = alloca ptr, align 8
  %5 = alloca ptr, align 8
  %6 = alloca ptr, align 8
  store ptr %0, ptr %3, align 8, !tbaa !11
  store ptr %1, ptr %4, align 8, !tbaa !18
  call void @llvm.lifetime.start.p0(i64 8, ptr %5) #6
  %7 = load ptr, ptr %3, align 8, !tbaa !11
  %8 = load ptr, ptr %4, align 8, !tbaa !18
  %9 = call ptr @EVP_KDF_fetch(ptr noundef %7, ptr noundef %8, ptr noundef null)
  store ptr %9, ptr %5, align 8, !tbaa !26
  call void @llvm.lifetime.start.p0(i64 8, ptr %6) #6
  %10 = load ptr, ptr %5, align 8, !tbaa !26
  %11 = call ptr @EVP_KDF_CTX_new(ptr noundef %10)
  store ptr %11, ptr %6, align 8, !tbaa !8
  %12 = load ptr, ptr %5, align 8, !tbaa !26
  call void @EVP_KDF_free(ptr noundef %12)
  %13 = load ptr, ptr %6, align 8, !tbaa !8
  call void @llvm.lifetime.end.p0(i64 8, ptr %6) #6
  call void @llvm.lifetime.end.p0(i64 8, ptr %5) #6
  ret ptr %13
}

; Function Attrs: nounwind uwtable
define internal ptr @get_kdfbyname(ptr noundef %0) #0 {
  %2 = alloca ptr, align 8
  store ptr %0, ptr %2, align 8, !tbaa !18
  %3 = load ptr, ptr %2, align 8, !tbaa !18
  %4 = call ptr @get_kdfbyname_libctx(ptr noundef null, ptr noundef %3)
  ret ptr %4
}

; Function Attrs: nounwind uwtable
define internal i32 @test_kdf_kbkdf_kmac() #0 {
  %1 = alloca i32, align 4
  %2 = alloca ptr, align 8
  %3 = alloca [5 x %struct.ossl_param_st], align 16
  %4 = alloca ptr, align 8
  %5 = alloca [309 x i8], align 16
  %6 = alloca %struct.ossl_param_st, align 8
  %7 = alloca %struct.ossl_param_st, align 8
  %8 = alloca %struct.ossl_param_st, align 8
  %9 = alloca %struct.ossl_param_st, align 8
  %10 = alloca %struct.ossl_param_st, align 8
  call void @llvm.lifetime.start.p0(i64 4, ptr %1) #6
  call void @llvm.lifetime.start.p0(i64 8, ptr %2) #6
  call void @llvm.lifetime.start.p0(i64 200, ptr %3) #6
  call void @llvm.lifetime.start.p0(i64 8, ptr %4) #6
  %11 = getelementptr inbounds [5 x %struct.ossl_param_st], ptr %3, i64 0, i64 0
  store ptr %11, ptr %4, align 8, !tbaa !13
  call void @llvm.lifetime.start.p0(i64 309, ptr %5) #6
  call void @llvm.memset.p0.i64(ptr align 16 %5, i8 0, i64 309, i1 false)
  %12 = load ptr, ptr %4, align 8, !tbaa !13
  %13 = getelementptr inbounds nuw %struct.ossl_param_st, ptr %12, i32 1
  store ptr %13, ptr %4, align 8, !tbaa !13
  call void @llvm.lifetime.start.p0(i64 40, ptr %6) #6
  %14 = load ptr, ptr @test_kdf_kbkdf_kmac.mac, align 8, !tbaa !18
  call void @OSSL_PARAM_construct_utf8_string(ptr dead_on_unwind writable sret(%struct.ossl_param_st) align 8 %6, ptr noundef @.str.76, ptr noundef %14, i64 noundef 0)
  call void @llvm.memcpy.p0.p0.i64(ptr align 8 %12, ptr align 8 %6, i64 40, i1 false), !tbaa.struct !17
  call void @llvm.lifetime.end.p0(i64 40, ptr %6) #6
  %15 = load ptr, ptr %4, align 8, !tbaa !13
  %16 = getelementptr inbounds nuw %struct.ossl_param_st, ptr %15, i32 1
  store ptr %16, ptr %4, align 8, !tbaa !13
  call void @llvm.lifetime.start.p0(i64 40, ptr %7) #6
  call void @OSSL_PARAM_construct_octet_string(ptr dead_on_unwind writable sret(%struct.ossl_param_st) align 8 %7, ptr noundef @.str.80, ptr noundef @test_kdf_kbkdf_kmac.input_key, i64 noundef 41)
  call void @llvm.memcpy.p0.p0.i64(ptr align 8 %15, ptr align 8 %7, i64 40, i1 false), !tbaa.struct !17
  call void @llvm.lifetime.end.p0(i64 40, ptr %7) #6
  %17 = load ptr, ptr %4, align 8, !tbaa !13
  %18 = getelementptr inbounds nuw %struct.ossl_param_st, ptr %17, i32 1
  store ptr %18, ptr %4, align 8, !tbaa !13
  call void @llvm.lifetime.start.p0(i64 40, ptr %8) #6
  call void @OSSL_PARAM_construct_octet_string(ptr dead_on_unwind writable sret(%struct.ossl_param_st) align 8 %8, ptr noundef @.str.93, ptr noundef @test_kdf_kbkdf_kmac.context, i64 noundef 512)
  call void @llvm.memcpy.p0.p0.i64(ptr align 8 %17, ptr align 8 %8, i64 40, i1 false), !tbaa.struct !17
  call void @llvm.lifetime.end.p0(i64 40, ptr %8) #6
  %19 = load ptr, ptr %4, align 8, !tbaa !13
  %20 = getelementptr inbounds nuw %struct.ossl_param_st, ptr %19, i32 1
  store ptr %20, ptr %4, align 8, !tbaa !13
  call void @llvm.lifetime.start.p0(i64 40, ptr %9) #6
  call void @OSSL_PARAM_construct_octet_string(ptr dead_on_unwind writable sret(%struct.ossl_param_st) align 8 %9, ptr noundef @.str.71, ptr noundef @test_kdf_kbkdf_kmac.label, i64 noundef 54)
  call void @llvm.memcpy.p0.p0.i64(ptr align 8 %19, ptr align 8 %9, i64 40, i1 false), !tbaa.struct !17
  call void @llvm.lifetime.end.p0(i64 40, ptr %9) #6
  %21 = load ptr, ptr %4, align 8, !tbaa !13
  call void @llvm.lifetime.start.p0(i64 40, ptr %10) #6
  call void @OSSL_PARAM_construct_end(ptr dead_on_unwind writable sret(%struct.ossl_param_st) align 8 %10)
  call void @llvm.memcpy.p0.p0.i64(ptr align 8 %21, ptr align 8 %10, i64 40, i1 false), !tbaa.struct !17
  call void @llvm.lifetime.end.p0(i64 40, ptr %10) #6
  %22 = call ptr @get_kdfbyname(ptr noundef @.str.82)
  store ptr %22, ptr %2, align 8, !tbaa !8
  %23 = load ptr, ptr %2, align 8, !tbaa !8
  %24 = call i32 @test_ptr(ptr noundef @.str.53, i32 noundef 1585, ptr noundef @.str.83, ptr noundef %23)
  %25 = icmp ne i32 %24, 0
  br i1 %25, label %26, label %42

26:                                               ; preds = %0
  %27 = load ptr, ptr %2, align 8, !tbaa !8
  %28 = call i64 @EVP_KDF_CTX_get_kdf_size(ptr noundef %27)
  %29 = call i32 @test_size_t_eq(ptr noundef @.str.53, i32 noundef 1586, ptr noundef @.str.103, ptr noundef @.str.104, i64 noundef %28, i64 noundef -1)
  %30 = icmp ne i32 %29, 0
  br i1 %30, label %31, label %42

31:                                               ; preds = %26
  %32 = load ptr, ptr %2, align 8, !tbaa !8
  %33 = getelementptr inbounds [309 x i8], ptr %5, i64 0, i64 0
  %34 = getelementptr inbounds [5 x %struct.ossl_param_st], ptr %3, i64 0, i64 0
  %35 = call i32 @EVP_KDF_derive(ptr noundef %32, ptr noundef %33, i64 noundef 309, ptr noundef %34)
  %36 = call i32 @test_int_gt(ptr noundef @.str.53, i32 noundef 1587, ptr noundef @.str.84, ptr noundef @.str.67, i32 noundef %35, i32 noundef 0)
  %37 = icmp ne i32 %36, 0
  br i1 %37, label %38, label %42

38:                                               ; preds = %31
  %39 = getelementptr inbounds [309 x i8], ptr %5, i64 0, i64 0
  %40 = call i32 @test_mem_eq(ptr noundef @.str.53, i32 noundef 1588, ptr noundef @.str.85, ptr noundef @.str.97, ptr noundef %39, i64 noundef 309, ptr noundef @test_kdf_kbkdf_kmac.output, i64 noundef 309)
  %41 = icmp ne i32 %40, 0
  br label %42

42:                                               ; preds = %38, %31, %26, %0
  %43 = phi i1 [ false, %31 ], [ false, %26 ], [ false, %0 ], [ %41, %38 ]
  %44 = zext i1 %43 to i32
  store i32 %44, ptr %1, align 4, !tbaa !4
  %45 = load ptr, ptr %2, align 8, !tbaa !8
  call void @EVP_KDF_CTX_free(ptr noundef %45)
  %46 = load i32, ptr %1, align 4, !tbaa !4
  call void @llvm.lifetime.end.p0(i64 309, ptr %5) #6
  call void @llvm.lifetime.end.p0(i64 8, ptr %4) #6
  call void @llvm.lifetime.end.p0(i64 200, ptr %3) #6
  call void @llvm.lifetime.end.p0(i64 8, ptr %2) #6
  call void @llvm.lifetime.end.p0(i64 4, ptr %1) #6
  ret i32 %46
}