; Function Attrs: nounwind uwtable
define internal range(i32 0, 2) i32 @test_kdf_kbkdf_kmac() #0 {
  %1 = alloca [5 x %struct.ossl_param_st], align 16
  %2 = alloca [309 x i8], align 16
  %3 = alloca %struct.ossl_param_st, align 8
  %4 = alloca %struct.ossl_param_st, align 8
  %5 = alloca %struct.ossl_param_st, align 8
  %6 = alloca %struct.ossl_param_st, align 8
  call void @llvm.lifetime.start.p0(i64 200, ptr nonnull %1) #6
  call void @llvm.lifetime.start.p0(i64 309, ptr nonnull %2) #6
  call void @llvm.memset.p0.i64(ptr noundef nonnull align 16 dereferenceable(309) %2, i8 0, i64 309, i1 false)
  %7 = getelementptr inbounds nuw i8, ptr %1, i64 40
  call void @OSSL_PARAM_construct_utf8_string(ptr dead_on_unwind nonnull writable sret(%struct.ossl_param_st) align 8 %1, ptr noundef nonnull @.str.76, ptr noundef nonnull @.str.102, i64 noundef 0) #6
  %8 = getelementptr inbounds nuw i8, ptr %1, i64 80
  call void @llvm.lifetime.start.p0(i64 40, ptr nonnull %3) #6
  call void @OSSL_PARAM_construct_octet_string(ptr dead_on_unwind nonnull writable sret(%struct.ossl_param_st) align 8 %3, ptr noundef nonnull @.str.80, ptr noundef nonnull @test_kdf_kbkdf_kmac.input_key, i64 noundef 41) #6
  call void @llvm.memcpy.p0.p0.i64(ptr noundef nonnull align 8 dereferenceable(40) %7, ptr noundef nonnull align 8 dereferenceable(40) %3, i64 40, i1 false), !tbaa.struct !10
  call void @llvm.lifetime.end.p0(i64 40, ptr nonnull %3) #6
  %9 = getelementptr inbounds nuw i8, ptr %1, i64 120
  call void @llvm.lifetime.start.p0(i64 40, ptr nonnull %4) #6
  call void @OSSL_PARAM_construct_octet_string(ptr dead_on_unwind nonnull writable sret(%struct.ossl_param_st) align 8 %4, ptr noundef nonnull @.str.93, ptr noundef nonnull @test_kdf_kbkdf_kmac.context, i64 noundef 512) #6
  call void @llvm.memcpy.p0.p0.i64(ptr noundef nonnull align 16 dereferenceable(40) %8, ptr noundef nonnull align 8 dereferenceable(40) %4, i64 40, i1 false), !tbaa.struct !10
  call void @llvm.lifetime.end.p0(i64 40, ptr nonnull %4) #6
  %10 = getelementptr inbounds nuw i8, ptr %1, i64 160
  call void @llvm.lifetime.start.p0(i64 40, ptr nonnull %5) #6
  call void @OSSL_PARAM_construct_octet_string(ptr dead_on_unwind nonnull writable sret(%struct.ossl_param_st) align 8 %5, ptr noundef nonnull @.str.71, ptr noundef nonnull @test_kdf_kbkdf_kmac.label, i64 noundef 54) #6
  call void @llvm.memcpy.p0.p0.i64(ptr noundef nonnull align 8 dereferenceable(40) %9, ptr noundef nonnull align 8 dereferenceable(40) %5, i64 40, i1 false), !tbaa.struct !10
  call void @llvm.lifetime.end.p0(i64 40, ptr nonnull %5) #6
  call void @llvm.lifetime.start.p0(i64 40, ptr nonnull %6) #6
  call void @OSSL_PARAM_construct_end(ptr dead_on_unwind nonnull writable sret(%struct.ossl_param_st) align 8 %6) #6
  call void @llvm.memcpy.p0.p0.i64(ptr noundef nonnull align 16 dereferenceable(40) %10, ptr noundef nonnull align 8 dereferenceable(40) %6, i64 40, i1 false), !tbaa.struct !10
  call void @llvm.lifetime.end.p0(i64 40, ptr nonnull %6) #6
  %11 = call ptr @EVP_KDF_fetch(ptr noundef null, ptr noundef nonnull @.str.82, ptr noundef null) #6
  %12 = call ptr @EVP_KDF_CTX_new(ptr noundef %11) #6
  call void @EVP_KDF_free(ptr noundef %11) #6
  %13 = call i32 @test_ptr(ptr noundef nonnull @.str.53, i32 noundef 1585, ptr noundef nonnull @.str.83, ptr noundef %12) #6
  %.not = icmp eq i32 %13, 0
  br i1 %.not, label %24, label %14

14:                                               ; preds = %0
  %15 = call i64 @EVP_KDF_CTX_get_kdf_size(ptr noundef %12) #6
  %16 = call i32 @test_size_t_eq(ptr noundef nonnull @.str.53, i32 noundef 1586, ptr noundef nonnull @.str.103, ptr noundef nonnull @.str.104, i64 noundef %15, i64 noundef -1) #6
  %.not9 = icmp eq i32 %16, 0
  br i1 %.not9, label %24, label %17

17:                                               ; preds = %14
  %18 = call i32 @EVP_KDF_derive(ptr noundef %12, ptr noundef nonnull %2, i64 noundef 309, ptr noundef nonnull %1) #6
  %19 = call i32 @test_int_gt(ptr noundef nonnull @.str.53, i32 noundef 1587, ptr noundef nonnull @.str.84, ptr noundef nonnull @.str.67, i32 noundef %18, i32 noundef 0) #6
  %.not10 = icmp eq i32 %19, 0
  br i1 %.not10, label %24, label %20

20:                                               ; preds = %17
  %21 = call i32 @test_mem_eq(ptr noundef nonnull @.str.53, i32 noundef 1588, ptr noundef nonnull @.str.85, ptr noundef nonnull @.str.97, ptr noundef nonnull %2, i64 noundef 309, ptr noundef nonnull @test_kdf_kbkdf_kmac.output, i64 noundef 309) #6
  %22 = icmp ne i32 %21, 0
  %23 = zext i1 %22 to i32
  br label %24

24:                                               ; preds = %20, %17, %14, %0
  %25 = phi i32 [ 0, %17 ], [ 0, %14 ], [ 0, %0 ], [ %23, %20 ]
  call void @EVP_KDF_CTX_free(ptr noundef %12) #6
  call void @llvm.lifetime.end.p0(i64 309, ptr nonnull %2) #6
  call void @llvm.lifetime.end.p0(i64 200, ptr nonnull %1) #6
  ret i32 %25
}